X.509 Certificate Information:
	Version: 3
	Serial Number (hex): 00
	Issuer: O=GnuTLS test certificate
	Validity:
		Not Before: Fri Jan 26 10:00:04 UTC 2007
		Not After: Sat Jan 27 10:00:06 UTC 2007
	Subject: O=GnuTLS test certificate
	Subject Public Key Algorithm: RSA
		Modulus (bits 512):
			00:a1:63:53:6b:54:95:ac:3c:a4:4b:4b:6a:ba:c0:9c
			11:ad:28:dd:03:a8:c0:f4:17:bf:18:cd:9f:b3:5a:d1
			de:21:41:db:a3:d2:6c:f9:66:87:69:7c:50:07:81:66
			41:28:c9:99:e2:eb:cc:57:53:9d:0c:b1:94:6f:ef:eb
			17
		Exponent (bits 24):
			01:00:01
	Extensions:
		Basic Constraints (critical):
			Certificate Authority (CA): TRUE
		Subject Key Identifier (not critical):
			3f00012df1304b60a3b0306cab0e93fe0158801b
	Signature Algorithm: RSA-SHA1
	Signature:
		9b:c1:b6:d9:df:2c:b1:1d:dd:da:14:19:94:b3:7c:12
		e9:33:a5:2e:b5:c0:82:1d:45:7a:bf:73:b9:30:74:9d
		f3:6e:7e:4c:f3:8d:ed:2a:f8:3f:39:04:ef:a4:fd:e3
		fc:cb:ba:1f:2a:1d:ad:f3:f9:68:39:f4:6d:1f:6a:15
Other Information:
	Fingerprint:
		sha1:f3ddd5478b80b142200b50c9eb2ee37061b09ed6
		sha256:2a97f5b23c554a847b505429d9660ac2549bee5cc9279cb8c98d4b13729234ba
	Public Key ID:
		sha1:f268df0e814c0302ed338e146f57421dba44f06c
		sha256:aafdaec29861f9d05de1dfdc1c7a64332cedead32fcb790597b4757ea1104815
	Public Key PIN:
		pin-sha256:qv2uwphh+dBd4d/cHHpkMyzt6tMvy3kFl7R1fqEQSBU=
	Public key's random art:
		+--[ RSA  512]----+
		|.o..+o...        |
		| ...+o.o         |
		| .o  E=          |
		| .+oo+.o         |
		|.o.o..+ S        |
		|. .    + .       |
		|      o o        |
		|     . . o       |
		|        ..o      |
		+-----------------+

-----BEGIN CERTIFICATE-----
MIIBYDCCAQygAwIBAgIBADALBgkqhkiG9w0BAQUwIjEgMB4GA1UEChMXR251VExT
IHRlc3QgY2VydGlmaWNhdGUwHhcNMDcwMTI2MTAwMDA0WhcNMDcwMTI3MTAwMDA2
WjAiMSAwHgYDVQQKExdHbnVUTFMgdGVzdCBjZXJ0aWZpY2F0ZTBZMAsGCSqGSIb3
DQEBAQNKADBHAkChY1NrVJWsPKRLS2q6wJwRrSjdA6jA9Be/GM2fs1rR3iFB26PS
bPlmh2l8UAeBZkEoyZni68xXU50MsZRv7+sXAgMBAAGjMjAwMA8GA1UdEwEB/wQF
MAMBAf8wHQYDVR0OBBYEFD8AAS3xMEtgo7AwbKsOk/4BWIAbMAsGCSqGSIb3DQEB
BQNBAJvBttnfLLEd3doUGZSzfBLpM6UutcCCHUV6v3O5MHSd825+TPON7Sr4PzkE
76T94/zLuh8qHa3z+Wg59G0fahU=
-----END CERTIFICATE-----
