X.509 Certificate Information:
	Version: 1
	Serial Number (hex): 230ee360469524cec70be494182e7eeb
	Issuer: EMAIL=GostR3410-94@example.com,C=RU,O=CryptoPro,CN=GostR3410-94 example
	Validity:
		Not Before: Tue Aug 16 12:32:50 UTC 2005
		Not After: Sun Aug 16 12:32:50 UTC 2015
	Subject: EMAIL=GostR3410-94@example.com,C=RU,O=CryptoPro,CN=GostR3410-94 example
	Subject Public Key Algorithm: 1.2.643.2.2.20
	Signature Algorithm: 1.2.643.2.2.4
	Signature:
		11:c7:08:7e:12:dc:02:f1:02:23:29:47:76:8f:47:2a
		81:83:50:e3:07:cc:f2:e4:31:23:89:42:c8:73:e1:de
		22:f7:85:f3:55:bd:94:ec:46:91:9c:67:ac:58:d7:05
		2a:a7:8c:b7:85:2a:01:75:85:f7:d7:38:03:fb:cd:43
Other Information:
	Fingerprint:
		sha1:d43782a1f943a966f4ea1ac96bd048fe68d4d951
		sha256:19260c765a2c820be3612dc0431c045d37570f8e4de58ba218f10a8eeb0d42d7

-----BEGIN CERTIFICATE-----
MIICCzCCAboCECMO42BGlSTOxwvklBgufuswCAYGKoUDAgIEMGkxHTAbBgNVBAMM
FEdvc3RSMzQxMC05NCBleGFtcGxlMRIwEAYDVQQKDAlDcnlwdG9Qcm8xCzAJBgNV
BAYTAlJVMScwJQYJKoZIhvcNAQkBFhhHb3N0UjM0MTAtOTRAZXhhbXBsZS5jb20w
HhcNMDUwODE2MTIzMjUwWhcNMTUwODE2MTIzMjUwWjBpMR0wGwYDVQQDDBRHb3N0
UjM0MTAtOTQgZXhhbXBsZTESMBAGA1UECgwJQ3J5cHRvUHJvMQswCQYDVQQGEwJS
VTEnMCUGCSqGSIb3DQEJARYYR29zdFIzNDEwLTk0QGV4YW1wbGUuY29tMIGlMBwG
BiqFAwICFDASBgcqhQMCAiACBgcqhQMCAh4BA4GEAASBgLuEZuF5nls02CyAfxOo
GWZxV/6MVCUhR28wCyd3RpjG+0dVvrey85NsObVCNyaE4g0QiiQOHwxCTSs7ESuo
v2Y5MlyUi8Go/htjEvYJJYfMdRv05YmKCYJo01x3pg+2kBATjeM+fJyR1qwNCCw+
eMG1wra3Gqgqi0WBkzIydvp7MAgGBiqFAwICBANBABHHCH4S3ALxAiMpR3aPRyqB
g1DjB8zy5DEjiULIc+HeIveF81W9lOxGkZxnrFjXBSqnjLeFKgF1hffXOAP7zUM=
-----END CERTIFICATE-----
