X.509 Certificate Information:
	Version: 3
	Serial Number (hex): 335ae5d57d3e9438e00c7a73e4cf38331345bfee
	Issuer: CN=Test CA
	Validity:
		Not Before: Mon Oct 07 20:37:12 UTC 2019
		Not After: Thu Oct 01 20:37:15 UTC 2037
	Subject: CN=Test Server
	Subject Public Key Algorithm: GOST R 34.10-2012-512
	Algorithm Security Level: Future (512 bits)
		Curve:	TC26-512-A
		Digest:	STREEBOG-512
		ParamSet: TC26-Z
		X:
			64:13:c4:c7:fc:9d:b1:20:7a:8a:f0:50:9e:c6:5f:72
			01:35:e0:fd:98:db:48:33:c0:96:a0:57:51:ea:09:c2
			14:f5:d1:90:d2:19:52:42:b9:b3:b1:cb:7d:94:b7:0b
			00:fa:4e:e0:bc:67:20:96:63:96:de:e8:89:66:f6:50
		Y:
			6e:7b:a4:9f:0b:17:d1:ce:f9:ee:e2:e7:b4:4f:0e:ce
			6d:06:15:31:1f:05:69:da:bd:25:89:99:45:2a:32:d3
			55:81:e5:96:25:73:ab:6b:43:0c:84:70:9e:65:97:05
			1a:23:1f:a4:97:2e:0c:4f:15:cb:3a:1e:d2:95:46:4f
	Extensions:
		Basic Constraints (critical):
			Certificate Authority (CA): FALSE
		Subject Alternative Name (not critical):
			DNSname: localhost
		Key Purpose (not critical):
			TLS WWW Server.
		Key Usage (critical):
			Digital signature.
		Subject Key Identifier (not critical):
			04e41e66a4bf78e63e28bb34eed6956a20d47616
		Authority Key Identifier (not critical):
			74cf59b3e174a809e4debf3b7ad63094343e5a4a
	Signature Algorithm: GOSTR341012-512
	Signature:
		d2:3b:41:c0:58:3d:4b:4f:91:ca:e3:68:37:34:c7:bf
		bd:4b:af:6d:40:ec:53:6f:73:a2:f2:ef:ad:bb:c2:c2
		10:7e:39:a7:75:e3:1a:23:9c:b1:2e:ca:8e:04:34:22
		94:0b:24:dc:d0:c8:a1:ec:3a:23:59:bb:0f:f4:87:e9
		24:64:34:42:4e:8f:76:e8:c2:d4:b2:b7:4c:7d:b5:51
		41:65:4d:6e:f3:29:89:8f:aa:76:b0:bc:a7:7d:56:21
		88:46:b1:42:83:9a:7d:2c:45:c0:1c:bc:6a:0e:43:3d
		09:6a:0e:3d:11:10:ce:ee:4c:3d:cc:d6:81:42:08:b9
Other Information:
	Fingerprint:
		sha1:087e529deb0bc108e536c79fbaf6d9a67655caac
		sha256:3ec70a1ba9610ef92429681a82f3d8da299dce0a54b9ecbabbe618de4bd79d3e
	Public Key ID:
		sha1:04e41e66a4bf78e63e28bb34eed6956a20d47616
		sha256:59e05ec4906a8985d1f207a549c5eaa46258c086ab5c7759737686122e65674b
	Public Key PIN:
		pin-sha256:WeBexJBqiYXR8gelScXqpGJYwIarXHdZc3aGEi5lZ0s=

-----BEGIN CERTIFICATE-----
MIICOjCCAaagAwIBAgIUM1rl1X0+lDjgDHpz5M84MxNFv+4wCgYIKoUDBwEBAwMw
EjEQMA4GA1UEAxMHVGVzdCBDQTAeFw0xOTEwMDcyMDM3MTJaFw0zNzEwMDEyMDM3
MTVaMBYxFDASBgNVBAMTC1Rlc3QgU2VydmVyMIGgMBcGCCqFAwcBAQECMAsGCSqF
AwcBAgECAQOBhAAEgYBQ9maJ6N6WY5YgZ7zgTvoAC7eUfcuxs7lCUhnSkNH1FMIJ
6lFXoJbAM0jbmP3gNQFyX8aeUPCKeiCxnfzHxBNkT0aV0h46yxVPDC6XpB8jGgWX
ZZ5whAxDa6tzJZblgVXTMipFmYklvdppBR8xFQZtzg5PtOfi7vnO0RcLn6R7bqOB
jTCBijAMBgNVHRMBAf8EAjAAMBQGA1UdEQQNMAuCCWxvY2FsaG9zdDATBgNVHSUE
DDAKBggrBgEFBQcDATAPBgNVHQ8BAf8EBQMDB4AAMB0GA1UdDgQWBBQE5B5mpL94
5j4ouzTu1pVqINR2FjAfBgNVHSMEGDAWgBR0z1mz4XSoCeTevzt61jCUND5aSjAK
BggqhQMHAQEDAwOBgQDSO0HAWD1LT5HK42g3NMe/vUuvbUDsU29zovLvrbvCwhB+
Oad14xojnLEuyo4ENCKUCyTc0Mih7DojWbsP9IfpJGQ0Qk6PdujC1LK3TH21UUFl
TW7zKYmPqnawvKd9ViGIRrFCg5p9LEXAHLxqDkM9CWoOPREQzu5MPczWgUIIuQ==
-----END CERTIFICATE-----
