X.509 Certificate Information:
	Version: 3
	Serial Number (hex): 2b929d27439e7b085b2226481fe25b6a6bc7f7ee
	Issuer: CN=Test CA
	Validity:
		Not Before: Mon Oct 07 18:51:37 UTC 2019
		Not After: Fri Oct 02 18:51:42 UTC 2037
	Subject: CN=Test CA
	Subject Public Key Algorithm: GOST R 34.10-2012-512
	Algorithm Security Level: Future (512 bits)
		Curve:	TC26-512-A
		Digest:	STREEBOG-512
		ParamSet: TC26-Z
		X:
			b1:17:9e:1f:55:64:01:dd:03:09:12:17:8f:4a:38:e8
			21:37:b9:50:d8:ff:0a:59:89:a0:0e:af:a3:cb:dc:67
			f9:b8:4e:7f:b6:61:f0:7b:30:7b:39:53:f2:16:dd:ca
			87:9b:c9:c1:fe:76:72:a8:6c:8f:a9:2c:02:e7:6a:5c
		Y:
			46:20:fd:e0:95:ae:b1:ba:82:c0:9f:d5:a2:3d:f7:af
			cc:79:84:e9:08:37:41:f0:84:d4:be:22:e1:0d:81:7b
			4b:c9:82:e6:8f:f9:4c:0f:dd:d6:a8:20:aa:d8:ad:c0
			49:3c:11:4c:0e:a6:8d:e5:7b:5c:28:f8:d5:6d:0c:0b
	Extensions:
		Basic Constraints (critical):
			Certificate Authority (CA): TRUE
		Key Usage (critical):
			Digital signature.
			Certificate signing.
			CRL signing.
		Subject Key Identifier (not critical):
			74cf59b3e174a809e4debf3b7ad63094343e5a4a
	Signature Algorithm: GOSTR341012-512
	Signature:
		dc:07:df:59:f7:0c:84:1a:4d:88:3d:95:74:9e:60:d5
		af:cf:23:7e:46:4b:1b:4f:be:f0:2c:da:8a:4b:eb:6c
		f3:46:bc:62:02:55:f2:39:43:d5:9a:45:e7:f9:70:41
		2c:1b:12:63:34:5a:19:20:65:31:29:33:b1:0c:f5:49
		7d:12:67:a9:f8:e9:f3:fd:c5:2b:11:08:9f:b2:d7:0a
		4f:3a:5c:a6:9d:30:7c:f0:7b:e7:2b:72:a7:e2:04:d2
		9b:a7:f4:40:31:d2:ad:73:90:2d:60:80:2b:c3:da:c3
		89:4d:dc:00:a9:01:5d:26:71:ff:1a:ac:80:3c:57:5b
Other Information:
	Fingerprint:
		sha1:652264ab8efad9f4e17b41f84e52d5244c2752ab
		sha256:47f73d42e8b14f5c940dbfaaa4f13a6f7e64c26d72c0aa094885c55eb53fb06e
	Public Key ID:
		sha1:a60d930b427a73b45a8d8bc3f1b184d651f48239
		sha256:38c9e68a183c9e53f31550ca25f18eac10e14018e978844548667c033c69d68d
	Public Key PIN:
		pin-sha256:OMnmihg8nlPzFVDKJfGOrBDhQBjpeIRFSGZ8Azxp1o0=

-----BEGIN CERTIFICATE-----
MIIB6zCCAVegAwIBAgIUK5KdJ0OeewhbIiZIH+JbamvH9+4wCgYIKoUDBwEBAwMw
EjEQMA4GA1UEAxMHVGVzdCBDQTAeFw0xOTEwMDcxODUxMzdaFw0zNzEwMDIxODUx
NDJaMBIxEDAOBgNVBAMTB1Rlc3QgQ0EwgaAwFwYIKoUDBwEBAQIwCwYJKoUDBwEC
AQIBA4GEAASBgFxq5wIsqY9sqHJ2/sHJm4fK3RbyUzl7MHvwYbZ/Trj5Z9zLo68O
oIlZCv/YULk3Ieg4So8XEgkD3QFkVR+eF7ELDG3V+Chce+WNpg5METxJwK3YqiCo
1t0PTPmP5oLJS3uBDeEivtSE8EE3COmEecyv9z2i1Z/AgrqxrpXg/SBGo0MwQTAP
BgNVHRMBAf8EBTADAQH/MA8GA1UdDwEB/wQFAwMHhgAwHQYDVR0OBBYEFHTPWbPh
dKgJ5N6/O3rWMJQ0PlpKMAoGCCqFAwcBAQMDA4GBANwH31n3DIQaTYg9lXSeYNWv
zyN+RksbT77wLNqKS+ts80a8YgJV8jlD1ZpF5/lwQSwbEmM0WhkgZTEpM7EM9Ul9
Emep+Onz/cUrEQifstcKTzpcpp0wfPB75ytyp+IE0pun9EAx0q1zkC1ggCvD2sOJ
TdwAqQFdJnH/GqyAPFdb
-----END CERTIFICATE-----
