X.509 Certificate Information:
	Version: 3
	Serial Number (hex): 011f
	Issuer: CN=SuperPlat CA 01,OU=SuperPlat CA,O=SuperPlat,L=Moscow,ST=Russia,C=RU
	Validity:
		Not Before: Fri Aug 17 06:47:36 UTC 2012
		Not After: Sat Aug 17 06:47:36 UTC 2013
	Subject: CN=SuperTerm0000001,OU=SuperPlat Terminals,O=SuperPlat,L=Moscow,ST=Russia,C=RU
error importing public key: The curve is unsupported
	Subject Public Key Algorithm: GOST R 34.10-2001
	Extensions:
		Basic Constraints (not critical):
			Certificate Authority (CA): FALSE
		Unknown extension 2.16.840.1.113730.1.13 (not critical):
			ASCII: ..OpenSSL Generated Certificate
			Hexdump: 161d4f70656e53534c2047656e657261746564204365727469666963617465
		Subject Key Identifier (not critical):
			43fe227895724f4e3a74f264e4fd0b800c082e03
		Authority Key Identifier (not critical):
			9875a3b785c1641b23344d9bfbae0c2a256b44eb
	Signature Algorithm: GOSTR341001
	Signature:
		8f:37:24:fd:be:f0:37:d9:f3:1a:5c:31:5e:33:ef:35
		61:93:07:03:3d:4d:e8:2c:1b:39:a2:6c:d4:2f:85:35
		b2:43:1d:ed:b5:15:45:c7:10:38:41:28:68:29:62:20
		e6:92:8a:64:34:87:b8:b9:9f:ab:c8:04:6d:26:55:99
Other Information:
	Fingerprint:
		sha1:621f34c4fdd7e93f9b8f18224ba0bcd1c63a4771
		sha256:ac6ecf4e7a876edf3e61f538d6061353c2015bfbdf60370492f7404d7f09e13a

-----BEGIN CERTIFICATE-----
MIICXjCCAgugAwIBAgICAR8wCgYGKoUDAgIDBQAwdDELMAkGA1UEBhMCUlUxDzAN
BgNVBAgMBlJ1c3NpYTEPMA0GA1UEBwwGTW9zY293MRIwEAYDVQQKDAlTdXBlclBs
YXQxFTATBgNVBAsMDFN1cGVyUGxhdCBDQTEYMBYGA1UEAwwPU3VwZXJQbGF0IENB
IDAxMB4XDTEyMDgxNzA2NDczNloXDTEzMDgxNzA2NDczNlowfDELMAkGA1UEBhMC
UlUxDzANBgNVBAgMBlJ1c3NpYTEPMA0GA1UEBwwGTW9zY293MRIwEAYDVQQKDAlT
dXBlclBsYXQxHDAaBgNVBAsME1N1cGVyUGxhdCBUZXJtaW5hbHMxGTAXBgNVBAMM
EFN1cGVyVGVybTAwMDAwMDEwYzAcBgYqhQMCAhMwEgYHKoUDAgIjAQYHKoUDAgIe
AQNDAARA69rbaWL2GSV1NVaWMSrWRX8d/frrwbVjJerPQKjyNeDYZxgSjTTp3dck
6fQLx2OjQsu6n+vdyBPQex/iwbJBV6N7MHkwCQYDVR0TBAIwADAsBglghkgBhvhC
AQ0EHxYdT3BlblNTTCBHZW5lcmF0ZWQgQ2VydGlmaWNhdGUwHQYDVR0OBBYEFEP+
IniVck9OOnTyZOT9C4AMCC4DMB8GA1UdIwQYMBaAFJh1o7eFwWQbIzRNm/uuDCol
a0TrMAoGBiqFAwICAwUAA0EAjzck/b7wN9nzGlwxXjPvNWGTBwM9TegsGzmibNQv
hTWyQx3ttRVFxxA4QShoKWIg5pKKZDSHuLmfq8gEbSZVmQ==
-----END CERTIFICATE-----
