X.509 Certificate Information:
	Version: 3
	Serial Number (hex): 09
	Issuer: C=CZ,O=corp+O=big corp+O=another corp,OU=arbitrary,UID=user,CN=unknown+CN=multi-test+CN=multi-test
	Validity:
		Not Before: Mon Oct 31 15:53:52 UTC 2016
		Not After: Tue Oct 31 15:53:52 UTC 2017
	Subject: C=CZ,O=corp+O=big corp+O=another corp,OU=arbitrary,UID=user,CN=unknown+CN=multi-test+CN=multi-test
	Subject Public Key Algorithm: RSA
	Algorithm Security Level: Low (1024 bits)
		Modulus (bits 1024):
			00:c0:0f:cd:3a:34:fb:58:cf:e6:2a:af:ad:52:1f:cf
			b3:87:e4:d4:de:f7:2b:9f:13:25:5c:c1:3e:5b:f7:45
			8d:d0:ff:b5:b9:95:73:7a:f0:65:da:9d:dc:8d:17:d0
			c4:56:64:5d:53:1c:d1:6d:29:6e:63:bc:79:ce:90:76
			f8:33:ce:51:3e:ef:cb:fd:ad:7f:92:db:ae:93:6c:4f
			93:7f:03:80:49:f9:34:4c:12:4f:f9:03:68:bb:69:e7
			a1:ee:65:3a:f2:52:f4:7b:74:37:d7:04:ba:79:6e:2c
			be:cb:f8:99:d7:fb:2b:c6:bb:39:f5:47:c6:55:e5:84
			7b
		Exponent (bits 24):
			01:00:01
	Extensions:
		Basic Constraints (critical):
			Certificate Authority (CA): FALSE
		Subject Key Identifier (not critical):
			753ab7fc73642914496111fdce90cbf63d1c8a13
	Signature Algorithm: RSA-SHA256
	Signature:
		a3:42:6f:c5:b0:1a:5d:5e:ef:91:17:c0:64:0c:84:c3
		53:33:23:e1:6f:83:21:0e:7f:0c:25:08:fa:0c:83:55
		d5:58:bc:cf:59:2a:d3:23:fa:f0:31:f8:3b:6a:3a:55
		32:8b:38:a3:f2:1d:ee:be:ad:bd:d6:d7:26:c0:fc:d5
		33:cf:3a:f1:3a:57:43:d9:a2:1f:39:c5:2c:07:00:65
		7f:e5:08:53:bf:42:8f:dd:c2:69:39:c3:e6:92:49:bb
		63:ce:99:58:38:13:5b:15:c2:bd:27:ea:fd:7b:0e:30
		e7:37:c6:47:ce:03:e7:5a:19:2a:90:a8:93:89:e9:9d
Other Information:
	Fingerprint:
		sha1:3cd23994f8e12b98462899fd30d6750f153dba7f
		sha256:9442533a526ab64a4fb32b87898fae2d6dd7e85730926a58ff5f5cb9fd810b0e
	Public Key ID:
		sha1:753ab7fc73642914496111fdce90cbf63d1c8a13
		sha256:0ffb94e70ee41e39af7547fb6eeead068e23a97e2d188521c471b75d772ff51b
	Public Key PIN:
		pin-sha256:D/uU5w7kHjmvdUf7bu6tBo4jqX4tGIUhxHG3XXcv9Rs=
	Public key's random art:
		+--[ RSA 1024]----+
		|            .**  |
		|            .o . |
		|          . . ...|
		|         . o .o .|
		|        S o o. =.|
		|           E o+o=|
		|            =.++o|
		|           o o.o+|
		|            . .o.|
		+-----------------+

-----BEGIN CERTIFICATE-----
MIIC7zCCAligAwIBAgIBCTANBgkqhkiG9w0BAQsFADCBpDE2MA4GA1UEAxMHdW5r
bm93bjARBgNVBAMTCm11bHRpLXRlc3QwEQYDVQQDEwptdWx0aS10ZXN0MRQwEgYK
CZImiZPyLGQBARMEdXNlcjESMBAGA1UECxMJYXJiaXRyYXJ5MTMwCwYDVQQKEwRj
b3JwMA8GA1UEChMIYmlnIGNvcnAwEwYDVQQKEwxhbm90aGVyIGNvcnAxCzAJBgNV
BAYTAkNaMB4XDTE2MTAzMTE1NTM1MloXDTE3MTAzMTE1NTM1MlowgaQxNjAOBgNV
BAMTB3Vua25vd24wEQYDVQQDEwptdWx0aS10ZXN0MBEGA1UEAxMKbXVsdGktdGVz
dDEUMBIGCgmSJomT8ixkAQETBHVzZXIxEjAQBgNVBAsTCWFyYml0cmFyeTEzMAsG
A1UEChMEY29ycDAPBgNVBAoTCGJpZyBjb3JwMBMGA1UEChMMYW5vdGhlciBjb3Jw
MQswCQYDVQQGEwJDWjCBnzANBgkqhkiG9w0BAQEFAAOBjQAwgYkCgYEAwA/NOjT7
WM/mKq+tUh/Ps4fk1N73K58TJVzBPlv3RY3Q/7W5lXN68GXandyNF9DEVmRdUxzR
bSluY7x5zpB2+DPOUT7vy/2tf5LbrpNsT5N/A4BJ+TRMEk/5A2i7aeeh7mU68lL0
e3Q31wS6eW4svsv4mdf7K8a7OfVHxlXlhHsCAwEAAaMvMC0wDAYDVR0TAQH/BAIw
ADAdBgNVHQ4EFgQUdTq3/HNkKRRJYRH9zpDL9j0cihMwDQYJKoZIhvcNAQELBQAD
gYEAo0JvxbAaXV7vkRfAZAyEw1MzI+FvgyEOfwwlCPoMg1XVWLzPWSrTI/rwMfg7
ajpVMos4o/Id7r6tvdbXJsD81TPPOvE6V0PZoh85xSwHAGV/5QhTv0KP3cJpOcPm
kkm7Y86ZWDgTWxXCvSfq/XsOMOc3xkfOA+daGSqQqJOJ6Z0=
-----END CERTIFICATE-----
