X.509 Certificate Information:
	Version: 3
	Serial Number (hex): 00ab812be4100cc51f
	Issuer: O=Default Company Ltd,L=Default City,C=CZ
	Validity:
		Not Before: Tue Mar 29 13:27:19 UTC 2016
		Not After: Fri Mar 27 13:27:19 UTC 2026
	Subject: O=Default Company Ltd,L=Default City,C=CZ
	Subject Public Key Algorithm: RSA
	Algorithm Security Level: Medium (2048 bits)
		Modulus (bits 2048):
			00:bd:f5:71:49:57:0e:17:96:4d:2c:12:b5:bb:72:58
			18:13:98:79:09:4d:e4:71:cb:da:a5:19:6d:75:ee:b4
			d7:2d:cb:a5:6b:4c:3b:d8:59:7c:fe:41:7d:07:bb:b7
			83:6e:5f:05:ca:fb:b8:24:d8:f1:c0:21:d7:04:29:ca
			99:90:67:2a:5b:21:00:c3:c4:dd:4f:a7:c6:5e:6c:b5
			c3:9b:a4:b0:3c:fc:4f:0e:ae:fc:9f:70:81:a8:f6:f1
			f3:b8:d9:db:2d:88:b4:86:2d:26:d8:65:85:e9:86:ed
			be:a8:12:5b:bb:8d:38:7f:05:82:71:b5:37:8c:46:e3
			26:09:4d:db:ec:23:cb:63:e4:f3:a8:5c:50:a2:f8:6a
			4b:b8:ff:8b:11:68:28:9c:a7:2b:6e:08:0f:22:29:66
			47:a8:ac:2d:10:60:53:da:e0:bf:e5:71:10:88:c8:b0
			bb:5d:32:bd:3c:77:50:7a:e3:83:7c:69:58:af:b5:05
			49:61:e2:78:6f:88:fb:7a:e1:10:f3:c4:1e:da:17:12
			85:bf:4c:53:4d:10:cd:b4:36:c3:7f:2e:ff:58:ef:6a
			19:68:1e:ad:77:80:e5:1e:d8:06:41:d3:2f:dd:6d:54
			c2:13:77:1b:dc:d9:2a:bb:37:c7:06:9d:ac:76:76:12
			63
		Exponent (bits 24):
			01:00:01
	Extensions:
		Basic Constraints (not critical):
			Certificate Authority (CA): TRUE
		Name Constraints (not critical):
			Permitted:
				IPAddress: 192.168.0.0/16
				IPAddress: 193.92.150.0/24
				IPAddress: fc7b:9a2a:3f0f:fec2::/64
				IPAddress: fca7:ac56:cffc:c34b:529:c15::/96
				IPAddress: fd2a:9d37:63de:cf00:66b3:63b9:74e6:0/112
	Signature Algorithm: RSA-SHA256
	Signature:
		6c:ba:1d:b6:8d:46:ef:e1:57:b1:db:99:05:f2:48:ea
		0c:d5:73:2f:e3:5a:c4:4c:19:3a:be:89:fe:75:b5:aa
		42:92:0c:a0:96:bd:62:6f:c7:2e:fa:31:f4:9d:b5:7f
		d4:ff:8c:27:64:3a:56:a5:b7:84:0e:fc:59:f7:01:fa
		05:63:75:0d:31:e1:d6:8c:62:7e:6a:b5:0c:bb:ef:c9
		b8:ea:46:2a:9d:fd:72:ad:58:d3:8e:eb:0a:f0:7e:54
		4a:97:0a:51:2b:36:bb:21:65:fe:22:10:17:6f:c7:ea
		7b:27:63:9b:54:32:56:a0:bf:36:ac:67:16:d1:19:ba
		31:10:61:64:ac:bf:c7:8a:ad:45:a0:79:11:28:2b:98
		47:05:c0:3b:60:91:6b:1c:27:e1:04:fb:e0:4e:6a:95
		67:0a:f4:58:9e:bd:db:df:28:a6:59:10:36:32:09:29
		87:7e:29:b1:f3:9e:f7:ee:3c:4b:5a:f0:b6:06:98:e4
		7f:9d:9d:e5:df:89:51:bd:cf:55:6c:b8:9e:30:c8:a2
		00:3c:92:dc:ae:2c:6f:9f:1f:c5:6a:b2:90:9b:26:63
		12:7f:10:02:39:ea:0f:e9:35:66:1c:bc:76:06:dc:6f
		ea:7d:cb:38:06:3e:0e:d3:fe:9e:21:14:d5:56:23:98
Other Information:
	Fingerprint:
		sha1:9d38c87dafe2a22e0a816bdad933261a1eb36843
		sha256:fa9a75cd439042b406a229276ee2c313cc758f95a9f729549a44bb4bd897f863
	Public Key ID:
		sha1:6eb4659b8f1d564e7c09551636eb4c1f6db1c00b
		sha256:feb180a57b0adeda7b9e29902b7cb0d9818eee8e53fdec881159cc2c73f575c7
	Public Key PIN:
		pin-sha256:/rGApXsK3tp7nimQK3yw2YGO7o5T/eyIEVnMLHP1dcc=

-----BEGIN CERTIFICATE-----
MIIDrjCCApagAwIBAgIJAKuBK+QQDMUfMA0GCSqGSIb3DQEBCwUAMEIxCzAJBgNV
BAYTAkNaMRUwEwYDVQQHDAxEZWZhdWx0IENpdHkxHDAaBgNVBAoME0RlZmF1bHQg
Q29tcGFueSBMdGQwHhcNMTYwMzI5MTMyNzE5WhcNMjYwMzI3MTMyNzE5WjBCMQsw
CQYDVQQGEwJDWjEVMBMGA1UEBwwMRGVmYXVsdCBDaXR5MRwwGgYDVQQKDBNEZWZh
dWx0IENvbXBhbnkgTHRkMIIBIjANBgkqhkiG9w0BAQEFAAOCAQ8AMIIBCgKCAQEA
vfVxSVcOF5ZNLBK1u3JYGBOYeQlN5HHL2qUZbXXutNcty6VrTDvYWXz+QX0Hu7eD
bl8Fyvu4JNjxwCHXBCnKmZBnKlshAMPE3U+nxl5stcObpLA8/E8OrvyfcIGo9vHz
uNnbLYi0hi0m2GWF6YbtvqgSW7uNOH8FgnG1N4xG4yYJTdvsI8tj5POoXFCi+GpL
uP+LEWgonKcrbggPIilmR6isLRBgU9rgv+VxEIjIsLtdMr08d1B644N8aVivtQVJ
YeJ4b4j7euEQ88Qe2hcShb9MU00QzbQ2w38u/1jvahloHq13gOUe2AZB0y/dbVTC
E3cb3NkquzfHBp2sdnYSYwIDAQABo4GmMIGjMAwGA1UdEwQFMAMBAf8wgZIGA1Ud
HgSBijCBh6CBhDAKhwjAqAAA//8AADAKhwjBXJYA////ADAihyD8e5oqPw/+wgAA
AAAAAAAA//////////8AAAAAAAAAADAihyD8p6xWz/zDSwUpDBUAAAAA////////
////////AAAAADAihyD9Kp03Y97PAGazY7l05gAA//////////////////8AADAN
BgkqhkiG9w0BAQsFAAOCAQEAbLodto1G7+FXsduZBfJI6gzVcy/jWsRMGTq+if51
tapCkgyglr1ib8cu+jH0nbV/1P+MJ2Q6VqW3hA78WfcB+gVjdQ0x4daMYn5qtQy7
78m46kYqnf1yrVjTjusK8H5USpcKUSs2uyFl/iIQF2/H6nsnY5tUMlagvzasZxbR
GboxEGFkrL/Hiq1FoHkRKCuYRwXAO2CRaxwn4QT74E5qlWcK9FievdvfKKZZEDYy
CSmHfimx85737jxLWvC2Bpjkf52d5d+JUb3PVWy4njDIogA8ktyuLG+fH8VqspCb
JmMSfxACOeoP6TVmHLx2Btxv6n3LOAY+DtP+niEU1VYjmA==
-----END CERTIFICATE-----
