X.509 Certificate Information:
	Version: 3
	Serial Number (hex): 2e103703df46859d7a550da659618538
	Issuer: CN=VeriSign Class 1 CA Individual Subscriber-Persona Not Validated,OU=www.verisign.com/repository/RPA Incorp. By Ref.\,LIAB.LTD(c)98,OU=VeriSign Trust Network,O=VeriSign\, Inc.
	Validity:
		Not Before: Mon Jun 26 00:00:00 UTC 2000
		Not After: Fri Aug 25 23:59:59 UTC 2000
	Subject: EMAIL=simon@josefsson.org,CN=Simon Josefsson,OU=Digital ID Class 1 - Netscape,OU=Persona Not Validated,OU=www.verisign.com/repository/RPA Incorp. by Ref.\,LIAB.LTD(c)98,OU=VeriSign Trust Network,O=VeriSign\, Inc.
	Subject Public Key Algorithm: RSA
		Modulus (bits 1024):
			00:c9:0c:ce:8a:fe:71:46:9b:ca:1d:e5:90:12:a5:11
			0b:c6:2d:c4:33:c6:19:e8:60:59:4e:3f:64:3d:e4:f7
			7b:b0:be:f9:10:07:e9:7c:a6:c6:5a:51:33:24:97:7b
			a3:e1:08:b4:52:b6:06:10:7d:65:df:6e:52:bd:81:3f
			39:ad:b3:ad:17:13:88:22:e7:43:8c:39:b7:c2:c4:ba
			4a:8b:54:15:49:55:a4:4d:cc:00:56:7b:c8:63:4e:37
			de:fb:79:0f:45:dc:e9:5c:cd:70:f0:64:42:35:84:db
			e6:59:a4:cb:4b:fe:0f:47:28:0c:35:11:a9:40:fc:ba
			a5
		Exponent (bits 24):
			01:00:01
	Extensions:
		Basic Constraints (not critical):
			Certificate Authority (CA): FALSE
		Certificate Policies (not critical):
			2.16.840.1.113733.1.7.1.8
				URI: https://www.verisign.com/rpa
		Unknown extension 2.16.840.1.113730.1.1 (not critical):
			ASCII: ....
			Hexdump: 03020780
		Unknown extension 2.16.840.1.113733.1.6.3 (not critical):
			ASCII: .vd4652bd63f2047029298763c9d2f275069c7359bed1b059da75bc4bc9701747da5d5e4141beadb2bd2e88317af7bf5d5114997a3bf45f8f3ea450c
			Hexdump: 167664343635326264363366323034373032393239383736336339643266323735303639633733353962656431623035396461373562633462633937303137343764613564356534313431626561646232626432653838333137616637626635643531313439393761336266343566386633656134353063
		CRL Distribution points (not critical):
			URI: http://crl.verisign.com/class1.crl
	Signature Algorithm: RSA-MD5
warning: signed using a broken signature algorithm that can be forged.
	Signature:
		09:38:2f:57:9e:91:a4:d2:42:d9:d7:44:c1:d8:17:14
		49:00:69:9f:6b:e4:95:93:35:fd:96:76:ff:8b:bf:9e
		dd:05:6b:82:b2:f3:af:0f:f8:a0:2f:8d:65:08:27:54
		d4:8f:47:79:c9:be:d9:f9:ce:af:7f:2a:06:17:26:f3
		b9:e6:74:ba:b9:35:3e:36:56:5d:41:9c:ce:68:fc:db
		c5:31:42:09:32:37:e7:b7:2e:a4:c5:51:e5:fe:e5:45
		59:0c:44:ca:ce:ad:77:24:52:b4:78:5f:cc:4f:15:a7
		8f:20:81:56:65:08:50:37:75:bc:a2:11:82:72:48:76
Other Information:
	Fingerprint:
		sha1:8f735c5ddefd723f59b6a3bb2ac0522470c0182f
		sha256:fc5b45b20c489393a457f177572920ac40bacba9d25cea51200822271eaf7d1f
	Public Key ID:
		sha1:1e09d707d4e3651b84dcb6c68a828d2affef7ec3
		sha256:118e72e3655150c895ecbd19b3634179fb4a87c7a25abefcb11f5d66661d5a4d
	Public Key PIN:
		pin-sha256:EY5y42VRUMiV7L0Zs2NBeftKh8eiWr78sR9dZmYdWk0=

-----BEGIN CERTIFICATE-----
MIIEhDCCA+2gAwIBAgIQLhA3A99GhZ16VQ2mWWGFODANBgkqhkiG9w0BAQQFADCB
zDEXMBUGA1UEChMOVmVyaVNpZ24sIEluYy4xHzAdBgNVBAsTFlZlcmlTaWduIFRy
dXN0IE5ldHdvcmsxRjBEBgNVBAsTPXd3dy52ZXJpc2lnbi5jb20vcmVwb3NpdG9y
eS9SUEEgSW5jb3JwLiBCeSBSZWYuLExJQUIuTFREKGMpOTgxSDBGBgNVBAMTP1Zl
cmlTaWduIENsYXNzIDEgQ0EgSW5kaXZpZHVhbCBTdWJzY3JpYmVyLVBlcnNvbmEg
Tm90IFZhbGlkYXRlZDAeFw0wMDA2MjYwMDAwMDBaFw0wMDA4MjUyMzU5NTlaMIIB
CDEXMBUGA1UEChMOVmVyaVNpZ24sIEluYy4xHzAdBgNVBAsTFlZlcmlTaWduIFRy
dXN0IE5ldHdvcmsxRjBEBgNVBAsTPXd3dy52ZXJpc2lnbi5jb20vcmVwb3NpdG9y
eS9SUEEgSW5jb3JwLiBieSBSZWYuLExJQUIuTFREKGMpOTgxHjAcBgNVBAsTFVBl
cnNvbmEgTm90IFZhbGlkYXRlZDEmMCQGA1UECxMdRGlnaXRhbCBJRCBDbGFzcyAx
IC0gTmV0c2NhcGUxGDAWBgNVBAMUD1NpbW9uIEpvc2Vmc3NvbjEiMCAGCSqGSIb3
DQEJARYTc2ltb25Aam9zZWZzc29uLm9yZzCBnzANBgkqhkiG9w0BAQEFAAOBjQAw
gYkCgYEAyQzOiv5xRpvKHeWQEqURC8YtxDPGGehgWU4/ZD3k93uwvvkQB+l8psZa
UTMkl3uj4Qi0UrYGEH1l325SvYE/Oa2zrRcTiCLnQ4w5t8LEukqLVBVJVaRNzABW
e8hjTjfe+3kPRdzpXM1w8GRCNYTb5lmky0v+D0coDDURqUD8uqUCAwEAAaOCASYw
ggEiMAkGA1UdEwQCMAAwRAYDVR0gBD0wOzA5BgtghkgBhvhFAQcBCDAqMCgGCCsG
AQUFBwIBFhxodHRwczovL3d3dy52ZXJpc2lnbi5jb20vcnBhMBEGCWCGSAGG+EIB
AQQEAwIHgDCBhgYKYIZIAYb4RQEGAwR4FnZkNDY1MmJkNjNmMjA0NzAyOTI5ODc2
M2M5ZDJmMjc1MDY5YzczNTliZWQxYjA1OWRhNzViYzRiYzk3MDE3NDdkYTVkNWU0
MTQxYmVhZGIyYmQyZTg4MzE3YWY3YmY1ZDUxMTQ5OTdhM2JmNDVmOGYzZWE0NTBj
MDMGA1UdHwQsMCowKKAmoCSGImh0dHA6Ly9jcmwudmVyaXNpZ24uY29tL2NsYXNz
MS5jcmwwDQYJKoZIhvcNAQEEBQADgYEACTgvV56RpNJC2ddEwdgXFEkAaZ9r5JWT
Nf2Wdv+Lv57dBWuCsvOvD/igL41lCCdU1I9Hecm+2fnOr38qBhcm87nmdLq5NT42
Vl1BnM5o/NvFMUIJMjfnty6kxVHl/uVFWQxEys6tdyRStHhfzE8Vp48ggVZlCFA3
dbyiEYJySHY=
-----END CERTIFICATE-----
