X.509 certificate info:

Version: 1
Serial Number (hex): 06
Subject: C=AU,ST=Queensland,O=CryptSoft Pty Ltd,CN=Server test cert (512 bit)
Issuer: C=AU,ST=Queensland,O=CryptSoft Pty Ltd,CN=Server test cert (512 bit)
Signature Algorithm: RSA-SHA
Validity:
	Not Before: Tue Sep 12 01:59:02 2006
	Not After: Thu Oct 12 01:59:02 2006
Subject Public Key Info:
	Public Key Algorithm: RSA (512 bits)
modulus:
	9f:b3:c3:84:27:95:ff:12:31:52:0f:15:ef:46:11:
	c4:ad:80:e6:36:5b:0f:dd:80:d7:61:8d:e0:fc:72:
	45:09:34:fe:55:66:45:43:4c:68:97:6a:fe:a8:a0:
	a5:df:5f:78:ff:ee:d7:64:b8:3f:04:cb:6f:ff:2a:
	fe:fe:b9:ed:
public exponent:
	01:00:01:

Other information:
	MD5 Fingerprint: A3:EB:02:BD:45:54:AD:A3:74:FC:CA:BE:31:A3:41:0A
	SHA1 Fingerprint: FA:E0:71:22:53:6D:9E:F5:01:EF:89:93:1D:3B:A9:17:29:75:2C:F8
	Public Key ID: 77:47:AD:43:02:5B:06:6E:B4:EF:29:DB:B2:AA:36:5D:01:7C:68:A1


-----BEGIN CERTIFICATE-----
MIIBsDCCAVoCAQYwDQYJKoZIhvcNAQEFBQAwYzELMAkGA1UEBhMCQVUxEzARBgNV
BAgTClF1ZWVuc2xhbmQxGjAYBgNVBAoTEUNyeXB0U29mdCBQdHkgTHRkMSMwIQYD
VQQDExpTZXJ2ZXIgdGVzdCBjZXJ0ICg1MTIgYml0KTAeFw0wNjA5MTEyMzU5MDJa
Fw0wNjEwMTEyMzU5MDJaMGMxCzAJBgNVBAYTAkFVMRMwEQYDVQQIEwpRdWVlbnNs
YW5kMRowGAYDVQQKExFDcnlwdFNvZnQgUHR5IEx0ZDEjMCEGA1UEAxMaU2VydmVy
IHRlc3QgY2VydCAoNTEyIGJpdCkwXDANBgkqhkiG9w0BAQEFAANLADBIAkEAn7PD
hCeV/xIxUg8V70YRxK2A5jZbD92A12GN4PxyRQk0/lVmRUNMaJdq/qigpd9feP/u
12S4PwTLb/8q/v657QIDAQABMA0GCSqGSIb3DQEBBQUAA0EAc+fnj0rB2CYautG2
4itiMOU4SN6JFTFDCTU/Gb5aR/Fiu7HJkuE5yGEnTdnwcId/T9sTW251yzCc1e2z
rHX/kw==
-----END CERTIFICATE-----
