X.509 certificate info:

Version: 3
Serial Number (hex): 17
Subject: CN=Hacker
Issuer: C=US,O=Starfield Technologies\, Inc.,OU=Starfield Class 2 Certification Authority
Signature Algorithm: RSA-SHA
Validity:
	Not Before: Sat Aug 19 18:51:30 2006
	Not After: Wed Oct 18 18:51:30 2006
Subject Public Key Info:
	Public Key Algorithm: RSA (1024 bits)
modulus:
	a4:ae:e8:28:56:b6:d0:6c:3a:96:81:ad:87:f8:3f:
	3c:82:18:d7:ba:0e:e1:3b:ae:6a:b8:08:cb:24:77:
	3f:2e:88:02:77:c1:57:7c:8c:6b:23:75:e6:38:63:
	3a:17:49:5a:7e:f6:61:05:e9:7a:8d:83:20:df:f1:
	46:f7:90:d8:0f:63:1b:c9:db:c9:60:41:5a:5d:e5:
	17:46:59:71:e8:d7:82:d6:05:30:f5:9a:d1:64:0a:
	20:21:56:50:13:b1:53:48:fe:d8:ef:da:db:fb:26:
	9f:04:b3:29:5b:0c:77:bb:86:c9:40:d2:b9:ec:46:
	bd:9c:4b:d6:ef:a4:cd:37:
public exponent:
	01:00:01:

X.509 Extensions:
	Basic Constraints: (critical)
		CA:TRUE

Other information:
	MD5 Fingerprint: 46:54:EC:0F:EF:70:BE:BE:22:57:90:BC:A1:FD:B8:AA
	SHA1 Fingerprint: 73:FA:53:71:4A:F1:AB:C6:31:82:B5:4D:59:3C:BC:B6:36:87:0D:55
	Public Key ID: 9E:A1:D8:56:93:79:0C:B3:E3:0B:D3:F4:A5:40:C8:7C:78:A8:49:82


-----BEGIN CERTIFICATE-----
MIICgzCCAWugAwIBAgIBFzANBgkqhkiG9w0BAQUFADBoMQswCQYDVQQGEwJVUzEl
MCMGA1UEChMcU3RhcmZpZWxkIFRlY2hub2xvZ2llcywgSW5jLjEyMDAGA1UECxMp
U3RhcmZpZWxkIENsYXNzIDIgQ2VydGlmaWNhdGlvbiBBdXRob3JpdHkwHhcNMDYw
ODE5MTY1MTMwWhcNMDYxMDE4MTY1MTMwWjARMQ8wDQYDVQQDEwZIYWNrZXIwgZ8w
DQYJKoZIhvcNAQEBBQADgY0AMIGJAoGBAKSu6ChWttBsOpaBrYf4PzyCGNe6DuE7
rmq4CMskdz8uiAJ3wVd8jGsjdeY4YzoXSVp+9mEF6XqNgyDf8Ub3kNgPYxvJ28lg
QVpd5RdGWXHo14LWBTD1mtFkCiAhVlATsVNI/tjv2tv7Jp8EsylbDHe7hslA0rns
Rr2cS9bvpM03AgMBAAGjEzARMA8GA1UdEwEB/wQFMAMBAf8wDQYJKoZIhvcNAQEF
BQADggEBAAAAAAAAAAAAAAAAAAAAAAAAAAAAAAAAAAAAAAAAAAAAAAAAAAAAAAAA
AAAAAAAAAAAAAAAAAAAAAAAAAAAAAAAAAAAAAAAAAAAAAAAAAAAAAAAAAAAAAAAA
AAAAAAAAAAAAAAAAAAAAAAAAAAAAAAAAAAAAAAAAAAAAAAAAAAAAAAAAAAAAAAAA
AAAAAAAAAAAAAAAAAAAAAAAAAAAAAAAAAAAAAAAAAAAAADLL/Up63HkFWD15INcW
Xd1nZGI+gO/whm58ICyJ1Js7ON6N4NyBTwe8513CvdOlOdG/Ctmy2gxEE47HhEed
ST8AUooI0ey599t84P20gGRuOYIjr7c=
-----END CERTIFICATE-----



X.509 certificate info:

Version: 3
Serial Number (hex): 00
Subject: C=US,O=Starfield Technologies\, Inc.,OU=Starfield Class 2 Certification Authority
Issuer: C=US,O=Starfield Technologies\, Inc.,OU=Starfield Class 2 Certification Authority
Signature Algorithm: RSA-SHA
Validity:
	Not Before: Tue Jun 29 19:39:16 2004
	Not After: Thu Jun 29 19:39:16 2034
Subject Public Key Info:
	Public Key Algorithm: RSA (2048 bits)
modulus:
	b7:32:c8:fe:e9:71:a6:04:85:ad:0c:11:64:df:ce:
	4d:ef:c8:03:18:87:3f:a1:ab:fb:3c:a6:9f:f0:c3:
	a1:da:d4:d8:6e:2b:53:90:fb:24:a4:3e:84:f0:9e:
	e8:5f:ec:e5:27:44:f5:28:a6:3f:7b:de:e0:2a:f0:
	c8:af:53:2f:9e:ca:05:01:93:1e:8f:66:1c:39:a7:
	4d:fa:5a:b6:73:04:25:66:eb:77:7f:e7:59:c6:4a:
	99:25:14:54:eb:26:c7:f3:7f:19:d5:30:70:8f:af:
	b0:46:2a:ff:ad:eb:29:ed:d7:9f:aa:04:87:a3:d4:
	f9:89:a5:34:5f:db:43:91:82:36:d9:66:3c:b1:b8:
	b9:82:fd:9c:3a:3e:10:c8:3b:ef:06:65:66:7a:9b:
	19:18:3d:ff:71:51:3c:30:2e:5f:be:3d:77:73:b2:
	5d:06:6c:c3:23:56:9a:2b:85:26:92:1c:a7:02:b3:
	e4:3f:0d:af:08:79:82:b8:36:3d:ea:9c:d3:35:b3:
	bc:69:ca:f5:cc:9d:e8:fd:64:8d:17:80:33:6e:5e:
	4a:5d:99:c9:1e:87:b4:9d:1a:c0:d5:6e:13:35:23:
	5e:df:9b:5f:3d:ef:d6:f7:76:c2:ea:3e:bb:78:0d:
	1c:42:67:6b:04:d8:f8:d6:da:6f:8b:f2:44:a0:01:
	ab:
public exponent:
	03:

X.509 Extensions:
	Basic Constraints:
		CA:TRUE
	Subject Key ID: 
		BF:5F:B7:D1:CE:DD:1F:86:F4:5B:55:AC:DC:D7:10:C2:0E:A9:88:E7
	Authority Key ID: 
		BF:5F:B7:D1:CE:DD:1F:86:F4:5B:55:AC:DC:D7:10:C2:0E:A9:88:E7

Other information:
	MD5 Fingerprint: 32:4A:4B:BB:C8:63:69:9B:BE:74:9A:C6:DD:1D:46:24
	SHA1 Fingerprint: AD:7E:1C:28:B0:64:EF:8F:60:03:40:20:14:C3:D0:E3:37:0E:B5:8A
	Public Key ID: 8D:C9:49:57:76:CC:19:71:BC:E5:EA:17:70:0A:83:61:9D:C9:27:A7


-----BEGIN CERTIFICATE-----
MIIEDzCCAvegAwIBAgIBADANBgkqhkiG9w0BAQUFADBoMQswCQYDVQQGEwJVUzEl
MCMGA1UEChMcU3RhcmZpZWxkIFRlY2hub2xvZ2llcywgSW5jLjEyMDAGA1UECxMp
U3RhcmZpZWxkIENsYXNzIDIgQ2VydGlmaWNhdGlvbiBBdXRob3JpdHkwHhcNMDQw
NjI5MTczOTE2WhcNMzQwNjI5MTczOTE2WjBoMQswCQYDVQQGEwJVUzElMCMGA1UE
ChMcU3RhcmZpZWxkIFRlY2hub2xvZ2llcywgSW5jLjEyMDAGA1UECxMpU3RhcmZp
ZWxkIENsYXNzIDIgQ2VydGlmaWNhdGlvbiBBdXRob3JpdHkwggEgMA0GCSqGSIb3
DQEBAQUAA4IBDQAwggEIAoIBAQC3Msj+6XGmBIWtDBFk385N78gDGIc/oav7PKaf
8MOh2tTYbitTkPskpD6E8J7oX+zlJ0T1KKY/e97gKvDIr1MvnsoFAZMej2YcOadN
+lq2cwQlZut3f+dZxkqZJRRU6ybH838Z1TBwj6+wRir/resp7defqgSHo9T5iaU0
X9tDkYI22WY8sbi5gv2cOj4QyDvvBmVmepsZGD3/cVE8MC5fvj13c7JdBmzDI1aa
K4UmkhynArPkPw2vCHmCuDY96pzTNbO8acr1zJ3o/WSNF4Azbl5KXZnJHoe0nRrA
1W4TNSNe35tfPe/W93bC6j67eA0cQmdrBNj41tpvi/JEoAGrAgEDo4HFMIHCMB0G
A1UdDgQWBBS/X7fRzt0fhvRbVazc1xDCDqmI5zCBkgYDVR0jBIGKMIGHgBS/X7fR
zt0fhvRbVazc1xDCDqmI56FspGowaDELMAkGA1UEBhMCVVMxJTAjBgNVBAoTHFN0
YXJmaWVsZCBUZWNobm9sb2dpZXMsIEluYy4xMjAwBgNVBAsTKVN0YXJmaWVsZCBD
bGFzcyAyIENlcnRpZmljYXRpb24gQXV0aG9yaXR5ggEAMAwGA1UdEwQFMAMBAf8w
DQYJKoZIhvcNAQEFBQADggEBAAWdP4id0ckaVaGsafPzWdqbAYcaT1epoXkJKtv3
L7IezMdeatiDh6GX70k1PncGQVhiv45YuApnP+yz3SFmH8lU+nLMPUxA2IGvd56D
eruix/U0F47ZEUD0/CwqTRV/p2JdLiXTAAsgGh1o+Re49L2L7ShZ3U0WixeDyLJl
xy16paq8U4Zt3VekyvggQQto8PT7dL5WXXp59fkdheMtlb71cZBDzI0fmgAKhynp
VSJYACPq4xJDKVtHCN2MQWplBqjlIapBtJUhlbl90TSrE9atvNziPTnNvT51cKEY
WQPJIrSPnNVeKtelttQKbfi3QBFGmh95DmK/D5fs4C8fF5Q=
-----END CERTIFICATE-----
