X.509 certificate info:

Version: 3
Serial Number (hex): 00:E4:A7:CC:4E:10:C7:61:FF
Subject: C=JP,ST=Tokyo,O=TEST 2 CLIENT,CN=www2.example.jp
Issuer: C=JP,O=CA TEST 1-4,CN=CA TEST 1-4
Signature Algorithm: RSA-SHA
Validity:
	Not Before: Thu Sep  7 18:40:37 2006
	Not After: Fri Sep  7 18:40:37 2007
Subject Public Key Info:
	Public Key Algorithm: RSA (1024 bits)
modulus:
	bd:2a:59:ea:28:3d:0e:97:8a:07:ad:21:ee:28:b5:
	46:2b:4d:ba:f9:27:e0:83:4e:7c:45:e3:0a:33:d2:
	17:09:88:6c:62:6a:9f:25:af:29:38:8c:2b:38:2e:
	11:89:06:e8:26:40:6e:cc:78:e2:dd:e4:be:c5:43:
	79:47:79:59:90:51:80:ca:1e:41:dd:6d:34:90:54:
	e0:15:f1:38:0f:1b:57:37:70:b2:dc:da:3d:e7:ae:
	7d:0b:59:0e:f2:9f:33:87:a3:f9:fa:3f:8f:d9:58:
	1f:db:9d:0a:e8:35:86:e6:8d:c9:b7:02:b6:28:f3:
	1a:89:e4:75:d5:f8:24:45:
public exponent:
	01:00:01:

X.509 Extensions:
	Basic Constraints:
		CA:FALSE
	Subject Key ID: 
		2B:40:D9:B5:DF:0A:D4:FD:A2:8F:D8:15:29:43:5C:1E:5C:7B:B8:22
	Authority Key ID: 
		DF:8D:09:6D:E6:1C:83:A5:7D:CE:2F:1A:A3:3C:B8:F1:A2:21:B5:F8
	2.16.840.1.113730.1.13: 
		DER Data: 161d4f70656e53534c2047656e657261746564204365727469666963617465
		ASCII: ..OpenSSL Generated Certificate

Other information:
	MD5 Fingerprint: D6:44:CE:F7:04:D3:24:3D:D5:14:54:AE:5D:88:C3:FA
	SHA1 Fingerprint: FB:86:09:B7:E3:5C:D5:EF:D3:75:8B:84:82:A4:22:28:B5:16:72:2A
	Public Key ID: 05:95:E0:8F:69:A2:59:92:3D:6B:2B:32:0C:88:C7:12:A1:09:16:8F


-----BEGIN CERTIFICATE-----
MIICzTCCAjagAwIBAgIJAOSnzE4Qx2H/MA0GCSqGSIb3DQEBBQUAMDkxCzAJBgNV
BAYTAkpQMRQwEgYDVQQKEwtDQSBURVNUIDEtNDEUMBIGA1UEAxMLQ0EgVEVTVCAx
LTQwHhcNMDYwOTA3MTY0MDM3WhcNMDcwOTA3MTY0MDM3WjBPMQswCQYDVQQGEwJK
UDEOMAwGA1UECBMFVG9reW8xFjAUBgNVBAoTDVRFU1QgMiBDTElFTlQxGDAWBgNV
BAMTD3d3dzIuZXhhbXBsZS5qcDCBnzANBgkqhkiG9w0BAQEFAAOBjQAwgYkCgYEA
vSpZ6ig9DpeKB60h7ii1RitNuvkn4INOfEXjCjPSFwmIbGJqnyWvKTiMKzguEYkG
6CZAbsx44t3kvsVDeUd5WZBRgMoeQd1tNJBU4BXxOA8bVzdwstzaPeeufQtZDvKf
M4ej+fo/j9lYH9udCug1huaNybcCtijzGonkddX4JEUCAwEAAaOBxjCBwzAJBgNV
HRMEAjAAMCwGCWCGSAGG+EIBDQQfFh1PcGVuU1NMIEdlbmVyYXRlZCBDZXJ0aWZp
Y2F0ZTAdBgNVHQ4EFgQUK0DZtd8K1P2ij9gVKUNcHlx7uCIwaQYDVR0jBGIwYIAU
340JbeYcg6V9zi8aozy48aIhtfihPaQ7MDkxCzAJBgNVBAYTAkpQMRQwEgYDVQQK
EwtDQSBURVNUIDEtNDEUMBIGA1UEAxMLQ0EgVEVTVCAxLTSCCQDkp8xOEMdh/jAN
BgkqhkiG9w0BAQUFAAOBgQAAAAAAAAAAAAAAAAAAAAAAAAAAAAAAAAAAAAAAAAAA
AAAAAAAAAAAAAAAAAAAAAAAAAAAAAAAAAAAAAAAAAAAAAAAAAAAAAAAAAAAAAAAA
AAAAAAAAAUKJ+eFJYSvXwGF2wxzDXj+x5YCItrHFmrEy4AXXAW+H0NgJVNvqRY/O
Kw==
-----END CERTIFICATE-----



X.509 certificate info:

Version: 3
Serial Number (hex): 00:E4:A7:CC:4E:10:C7:61:FE
Subject: C=JP,O=CA TEST 1-4,CN=CA TEST 1-4
Issuer: C=JP,O=CA TEST 1-4,CN=CA TEST 1-4
Signature Algorithm: RSA-SHA
Validity:
	Not Before: Thu Sep  7 18:33:18 2006
	Not After: Sat Oct  7 18:33:18 2006
Subject Public Key Info:
	Public Key Algorithm: RSA (1024 bits)
modulus:
	d9:7c:58:e4:3c:36:5e:a2:bc:56:aa:4e:ff:0c:a3:
	36:77:ff:4d:6a:8d:bc:74:ce:93:e6:c6:f9:2f:8d:
	61:0f:90:b5:91:75:7a:30:97:af:e4:02:c0:49:2c:
	6d:23:a3:95:3a:66:4e:e2:07:ee:6e:7b:2f:72:3d:
	0d:4d:93:b8:49:e1:75:c8:bd:6b:54:33:dd:c7:b8:
	ee:40:8d:5c:6c:38:86:fc:4c:08:31:6d:bd:50:87:
	63:f6:1d:39:d8:94:e6:11:ba:53:d1:1b:8f:ff:82:
	56:98:05:ab:74:ee:54:13:8d:31:b9:ae:d2:cf:6f:
	fa:f8:30:76:66:49:45:a1:
public exponent:
	03:

X.509 Extensions:
	Basic Constraints:
		CA:TRUE
	Subject Key ID: 
		DF:8D:09:6D:E6:1C:83:A5:7D:CE:2F:1A:A3:3C:B8:F1:A2:21:B5:F8
	Authority Key ID: 
		DF:8D:09:6D:E6:1C:83:A5:7D:CE:2F:1A:A3:3C:B8:F1:A2:21:B5:F8

Other information:
	MD5 Fingerprint: CA:33:DC:62:CB:54:8E:59:DD:D2:E8:9D:F6:BA:90:5B
	SHA1 Fingerprint: A4:E8:7D:0A:7D:D2:15:10:B0:AE:F7:24:58:F4:BE:AF:80:48:FE:AD
	Public Key ID: E5:D1:FC:26:A8:4C:FC:15:59:AD:06:F1:46:D8:40:31:C0:49:4D:1F


-----BEGIN CERTIFICATE-----
MIICijCCAfOgAwIBAgIJAOSnzE4Qx2H+MA0GCSqGSIb3DQEBBQUAMDkxCzAJBgNV
BAYTAkpQMRQwEgYDVQQKEwtDQSBURVNUIDEtNDEUMBIGA1UEAxMLQ0EgVEVTVCAx
LTQwHhcNMDYwOTA3MTYzMzE4WhcNMDYxMDA3MTYzMzE4WjA5MQswCQYDVQQGEwJK
UDEUMBIGA1UEChMLQ0EgVEVTVCAxLTQxFDASBgNVBAMTC0NBIFRFU1QgMS00MIGd
MA0GCSqGSIb3DQEBAQUAA4GLADCBhwKBgQDZfFjkPDZeorxWqk7/DKM2d/9Nao28
dM6T5sb5L41hD5C1kXV6MJev5ALASSxtI6OVOmZO4gfubnsvcj0NTZO4SeF1yL1r
VDPdx7juQI1cbDiG/EwIMW29UIdj9h052JTmEbpT0RuP/4JWmAWrdO5UE40xua7S
z2/6+DB2ZklFoQIBA6OBmzCBmDAdBgNVHQ4EFgQU340JbeYcg6V9zi8aozy48aIh
tfgwaQYDVR0jBGIwYIAU340JbeYcg6V9zi8aozy48aIhtfihPaQ7MDkxCzAJBgNV
BAYTAkpQMRQwEgYDVQQKEwtDQSBURVNUIDEtNDEUMBIGA1UEAxMLQ0EgVEVTVCAx
LTSCCQDkp8xOEMdh/jAMBgNVHRMEBTADAQH/MA0GCSqGSIb3DQEBBQUAA4GBABsH
aJ/c/3cGHssi8IvVRci/aavqj607y7l22nKDtG1p4KAjnfNhBMOhRhFv00nJnokK
y0uc4DIegAW1bxQjqcMNNEmGbzAeixH/cRCot8C1LobEQmxNWCY2DJLWoI3wwqr8
uUSnI1CDZ5402etkCiNXsDy/eYDrF+2KonkIWRrr
-----END CERTIFICATE-----
