X.509 Certificate Information:
	Version: 3
	Serial Number (hex): 46346bc7800056bc11d36e2e9ff25020
	Issuer: CN=CarlRSA
	Validity:
		Not Before: Wed Aug 18 07:00:00 UTC 1999
		Not After: Sat Dec 31 23:59:59 UTC 2039
	Subject: CN=CarlRSA
	Subject Public Key Algorithm: RSA
	Algorithm Security Level: Low (1024 bits)
		Modulus (bits 1024):
			00:e4:4b:ff:18:b8:24:57:f4:77:ff:6e:73:7b:93:71
			5c:bc:33:1a:92:92:72:23:d8:41:46:d0:cd:11:3a:04
			b3:8e:af:82:9d:bd:51:1e:17:7a:f2:76:2c:2b:86:39
			a7:bd:d7:8d:1a:53:ec:e4:00:d5:e8:ec:a2:36:b1:ed
			e2:50:e2:32:09:8a:3f:9f:99:25:8f:b8:4e:ab:b9:7d
			d5:96:65:da:16:a0:c5:be:0e:ae:44:5b:ef:5e:f4:a7
			29:cb:82:dd:ac:44:e9:aa:93:94:29:0e:f8:18:d6:c8
			57:5e:f2:76:c4:f2:11:60:38:b9:1b:3c:1d:97:c9:6a
			f1
		Exponent (bits 24):
			01:00:01
	Extensions:
		Basic Constraints (critical):
			Certificate Authority (CA): TRUE
		Key Usage (critical):
			Digital signature.
			Certificate signing.
			CRL signing.
		Subject Key Identifier (not critical):
			e9e09027ac78207a9ad34cf242374e22ae9e38bb
	Signature Algorithm: RSA-SHA1
	Signature:
		b7:9e:d4:04:d3:ed:29:e4:ff:89:89:15:2e:4c:db:0c
		f0:48:0f:32:61:ee:c4:04:ec:12:5d:2d:ff:0f:64:59
		7e:0a:c3:ed:18:fd:e3:56:40:37:a7:07:b5:f0:38:12
		61:50:ed:ef:dd:3f:e3:0b:b8:61:a5:a4:9b:3c:e6:9e
		9c:54:9a:b6:95:d6:da:6c:3b:b5:2d:45:35:9d:49:01
		76:fa:b9:b9:31:f9:f9:6b:12:53:a0:f5:14:60:9b:7d
		ca:3e:f2:53:6b:b0:37:6f:ad:e6:74:d7:db:fa:5a:ea
		14:41:63:5d:cd:be:c8:0e:c1:da:6a:8d:53:34:18:02
Other Information:
	SHA1 fingerprint:
		4110908f77c64c0edfc2de6273bfa9a98a9c5ce5
	SHA256 fingerprint:
		734c2253ad2d6bfaec981099a152b1ab42216b44cf48dadd306e6221ad824205
	Public Key ID:
		e9e09027ac78207a9ad34cf242374e22ae9e38bb
	Public key's random art:
		+--[ RSA 1024]----+
		|                 |
		|                 |
		|                 |
		|   . .   .       |
		|o   = o S        |
		|==.= = o         |
		|**O . . .        |
		|=*=.             |
		|EO               |
		+-----------------+

-----BEGIN CERTIFICATE-----
MIIB6zCCAVSgAwIBAgIQRjRrx4AAVrwR024un/JQIDANBgkqhkiG9w0BAQUFADAS
MRAwDgYDVQQDEwdDYXJsUlNBMB4XDTk5MDgxODA3MDAwMFoXDTM5MTIzMTIzNTk1
OVowEjEQMA4GA1UEAxMHQ2FybFJTQTCBnzANBgkqhkiG9w0BAQEFAAOBjQAwgYkC
gYEA5Ev/GLgkV/R3/25ze5NxXLwzGpKSciPYQUbQzRE6BLOOr4KdvVEeF3rydiwr
hjmnvdeNGlPs5ADV6OyiNrHt4lDiMgmKP5+ZJY+4Tqu5fdWWZdoWoMW+Dq5EW+9e
9Kcpy4LdrETpqpOUKQ74GNbIV17ydsTyEWA4uRs8HZfJavECAwEAAaNCMEAwDwYD
VR0TAQH/BAUwAwEB/zAOBgNVHQ8BAf8EBAMCAYYwHQYDVR0OBBYEFOngkCeseCB6
mtNM8kI3TiKunji7MA0GCSqGSIb3DQEBBQUAA4GBALee1ATT7Snk/4mJFS5M2wzw
SA8yYe7EBOwSXS3/D2RZfgrD7Rj941ZAN6cHtfA4EmFQ7e/dP+MLuGGlpJs85p6c
VJq2ldbabDu1LUU1nUkBdvq5uTH5+WsSU6D1FGCbfco+8lNrsDdvreZ019v6WuoU
QWNdzb7IDsHaao1TNBgC
-----END CERTIFICATE-----
